; Function Attrs: mustprogress nounwind uwtable
define dso_local void @_ZN15btCompoundShapeD2Ev(ptr nocapture noundef nonnull align 8 dereferenceable(128) %this) unnamed_addr #2 align 2 personality ptr @__gxx_personality_v0 {
entry:
  store ptr getelementptr inbounds ({ [20 x ptr] }, ptr @_ZTV15btCompoundShape, i64 0, i32 0, i64 2), ptr %this, align 8
  %m_dynamicAabbTree = getelementptr inbounds i8, ptr %this, i64 96
  %0 = load ptr, ptr %m_dynamicAabbTree, align 8
  %tobool.not = icmp eq ptr %0, null
  br i1 %tobool.not, label %if.end, label %if.then

if.then:                                          ; preds = %entry
  tail call void @_ZN6btDbvtD1Ev(ptr noundef nonnull align 8 dereferenceable(64) %0) #11
  %1 = load ptr, ptr %m_dynamicAabbTree, align 8
  invoke void @_Z21btAlignedFreeInternalPv(ptr noundef %1)
          to label %if.end unwind label %terminate.lpad

if.end:                                           ; preds = %if.then, %entry
  %m_data.i.i.i = getelementptr inbounds i8, ptr %this, i64 48
  %2 = load ptr, ptr %m_data.i.i.i, align 8
  %tobool.not.i.i.i = icmp eq ptr %2, null
  br i1 %tobool.not.i.i.i, label %_ZN20btAlignedObjectArrayI20btCompoundShapeChildED2Ev.exit, label %if.then.i.i.i

if.then.i.i.i:                                    ; preds = %if.end
  %m_ownsMemory.i.i.i = getelementptr inbounds i8, ptr %this, i64 56
  %3 = load i8, ptr %m_ownsMemory.i.i.i, align 8
  %4 = and i8 %3, 1
  %tobool2.not.i.i.i = icmp eq i8 %4, 0
  br i1 %tobool2.not.i.i.i, label %_ZN20btAlignedObjectArrayI20btCompoundShapeChildED2Ev.exit, label %if.then3.i.i.i

if.then3.i.i.i:                                   ; preds = %if.then.i.i.i
  invoke void @_Z21btAlignedFreeInternalPv(ptr noundef nonnull %2)
          to label %_ZN20btAlignedObjectArrayI20btCompoundShapeChildED2Ev.exit unwind label %terminate.lpad.i

terminate.lpad.i:                                 ; preds = %if.then3.i.i.i
  %5 = landingpad { ptr, i32 }
          catch ptr null
  %6 = extractvalue { ptr, i32 } %5, 0
  tail call void @__clang_call_terminate(ptr %6) #12
  unreachable

_ZN20btAlignedObjectArrayI20btCompoundShapeChildED2Ev.exit: ; preds = %if.end, %if.then.i.i.i, %if.then3.i.i.i
  %m_size.i.i.i = getelementptr inbounds i8, ptr %this, i64 36
  %m_ownsMemory.i1.i.i = getelementptr inbounds i8, ptr %this, i64 56
  store i8 1, ptr %m_ownsMemory.i1.i.i, align 8
  store ptr null, ptr %m_data.i.i.i, align 8
  store i32 0, ptr %m_size.i.i.i, align 4
  %m_capacity.i.i.i = getelementptr inbounds i8, ptr %this, i64 40
  store i32 0, ptr %m_capacity.i.i.i, align 8
  ret void

terminate.lpad:                                   ; preds = %if.then
  %7 = landingpad { ptr, i32 }
          catch ptr null
  %8 = extractvalue { ptr, i32 } %7, 0
  tail call void @__clang_call_terminate(ptr %8) #12
  unreachable
}